target datalayout = "e-m:e-p270:32:32-p271:32:32-p272:64:64-i64:64-i128:128-f80:128-n8:16:32:64-S128"
target triple = "x86_64-pc-linux-gnu"

%struct.MpegEncContext = type { ptr, i32, i32, i32, [12 x i32], i32, %struct.ScanTable, %struct.ScanTable, [64 x i8], [64 x i8], ptr, ptr, i32, i32, i32, i32, i32, i32, i32, i32, i32, i32, i32, i32, i32, i32, i32, i32, i32, i32, i32, i32, i64, i64, ptr, %struct.BufferPoolContext, i32, i32, %union.anon, i32, %struct.MPVWorkPicture, %struct.MPVWorkPicture, %struct.MPVWorkPicture, i32, [3 x i32], ptr, [3 x ptr], ptr, ptr, ptr, ptr, ptr, ptr, [3 x ptr], i32, ptr, ptr, ptr, ptr, %struct.ScratchpadContext, i32, i32, i32, i32, i32, i32, %struct.BlockDSPContext, %struct.H264ChromaContext, %struct.HpelDSPContext, %struct.IDCTDSPContext, %struct.QpelDSPContext, %struct.VideoDSPContext, %struct.H263DSPContext, ptr, [2 x [2 x ptr]], i32, i32, [2 x [4 x [2 x i32]]], [2 x [2 x i32]], [2 x [2 x [2 x i32]]], [2 x [64 x i16]], i32, i32, i32, i32, i32, [6 x i32], [6 x i32], [3 x ptr], ptr, [64 x i16], [64 x i16], [64 x i16], [64 x i16], i32, i32, %struct.GetBitContext, i32, i32, i32, i32, i32, i32, i32, i32, i32, i32, i32, i32, i32, i32, i32, i64, i64, i16, i16, i16, i16, i32, i32, i32, i32, i32, i32, i32, i32, i32, [3 x i32], i32, i32, i32, i32, i32, i32, %struct.GetBitContext, i32, [2 x [2 x i32]], i32, i32, i32, i32, i32, i32, i32, i32, i32, i32, i32, i32, i32, i32, [2 x i32], i32, i32, ptr, ptr, ptr, ptr, ptr, i32, i32, %struct.ERContext }
%struct.ScanTable = type { ptr, [64 x i8], [64 x i8] }
%struct.BufferPoolContext = type { ptr, ptr, ptr, ptr, ptr, i32, i32, i32 }
%union.anon = type { [32 x ptr] }
%struct.MPVWorkPicture = type { [3 x ptr], [3 x i64], ptr, ptr, [2 x ptr], ptr, ptr, [2 x ptr], i32 }
%struct.ScratchpadContext = type { ptr, ptr, %union.anon.0, i32 }
%union.anon.0 = type { ptr }
%struct.BlockDSPContext = type { ptr, ptr, [2 x ptr] }
%struct.H264ChromaContext = type { [4 x ptr], [4 x ptr] }
%struct.HpelDSPContext = type { [4 x [4 x ptr]], [4 x [4 x ptr]], [4 x [4 x ptr]], [4 x ptr] }
%struct.IDCTDSPContext = type { ptr, ptr, ptr, ptr, ptr, ptr, [64 x i8], i32, i32 }
%struct.QpelDSPContext = type { [2 x [16 x ptr]], [2 x [16 x ptr]], [2 x [16 x ptr]] }
%struct.VideoDSPContext = type { ptr, ptr }
%struct.H263DSPContext = type { ptr, ptr }
%struct.GetBitContext = type { ptr, ptr, i32, i32, i32 }
%struct.ERContext = type { ptr, ptr, i32, ptr, i32, i32, i32, i64, i64, i32, i32, ptr, ptr, [3 x ptr], ptr, ptr, [2 x [4 x [2 x i32]]], %struct.ERPicture, %struct.ERPicture, %struct.ERPicture, [2 x ptr], [2 x ptr], i16, i16, i32, i32, ptr, ptr }
%struct.ERPicture = type { ptr, ptr, ptr, [2 x ptr], [2 x ptr], ptr, i32 }

@.str.40 = private unnamed_addr constant [9 x i8] c"Huge DMV\00", align 1

; Function Attrs: inlinehint nounwind uwtable
define internal i32 @get_bits1(ptr noundef %0) #4 {
  %2 = alloca ptr, align 8
  %3 = alloca i32, align 4
  %4 = alloca i8, align 1
  store ptr %0, ptr %2, align 8, !tbaa !79
  call void @llvm.lifetime.start.p0(i64 4, ptr %3) #10
  %5 = load ptr, ptr %2, align 8, !tbaa !79
  %6 = getelementptr inbounds nuw %struct.GetBitContext, ptr %5, i32 0, i32 2
  %7 = load i32, ptr %6, align 8, !tbaa !81
  store i32 %7, ptr %3, align 4, !tbaa !67
  call void @llvm.lifetime.start.p0(i64 1, ptr %4) #10
  %8 = load ptr, ptr %2, align 8, !tbaa !79
  %9 = getelementptr inbounds nuw %struct.GetBitContext, ptr %8, i32 0, i32 0
  %10 = load ptr, ptr %9, align 8, !tbaa !82
  %11 = load i32, ptr %3, align 4, !tbaa !67
  %12 = lshr i32 %11, 3
  %13 = zext i32 %12 to i64
  %14 = getelementptr inbounds nuw i8, ptr %10, i64 %13
  %15 = load i8, ptr %14, align 1, !tbaa !75
  store i8 %15, ptr %4, align 1, !tbaa !75
  %16 = load i32, ptr %3, align 4, !tbaa !67
  %17 = and i32 %16, 7
  %18 = load i8, ptr %4, align 1, !tbaa !75
  %19 = zext i8 %18 to i32
  %20 = shl i32 %19, %17
  %21 = trunc i32 %20 to i8
  store i8 %21, ptr %4, align 1, !tbaa !75
  %22 = load i8, ptr %4, align 1, !tbaa !75
  %23 = zext i8 %22 to i32
  %24 = ashr i32 %23, 7
  %25 = trunc i32 %24 to i8
  store i8 %25, ptr %4, align 1, !tbaa !75
  %26 = load i32, ptr %3, align 4, !tbaa !67
  %27 = add i32 %26, 1
  store i32 %27, ptr %3, align 4, !tbaa !67
  %28 = load i32, ptr %3, align 4, !tbaa !67
  %29 = load ptr, ptr %2, align 8, !tbaa !79
  %30 = getelementptr inbounds nuw %struct.GetBitContext, ptr %29, i32 0, i32 2
  store i32 %28, ptr %30, align 8, !tbaa !81
  %31 = load i8, ptr %4, align 1, !tbaa !75
  %32 = zext i8 %31 to i32
  call void @llvm.lifetime.end.p0(i64 1, ptr %4) #10
  call void @llvm.lifetime.end.p0(i64 4, ptr %3) #10
  ret i32 %32
}

; Function Attrs: nounwind uwtable
define internal i32 @h263p_decode_umotion(ptr noundef %0, i32 noundef %1) #0 {
  %3 = alloca i32, align 4
  %4 = alloca ptr, align 8
  %5 = alloca i32, align 4
  %6 = alloca i32, align 4
  %7 = alloca i32, align 4
  %8 = alloca i32, align 4
  store ptr %0, ptr %4, align 8, !tbaa !4
  store i32 %1, ptr %5, align 4, !tbaa !67
  call void @llvm.lifetime.start.p0(i64 4, ptr %6) #10
  store i32 0, ptr %6, align 4, !tbaa !67
  call void @llvm.lifetime.start.p0(i64 4, ptr %7) #10
  %9 = load ptr, ptr %4, align 8, !tbaa !4
  %10 = getelementptr inbounds nuw %struct.MpegEncContext, ptr %9, i32 0, i32 134
  %11 = call i32 @get_bits1(ptr noundef %10)
  %12 = icmp ne i32 %11, 0
  br i1 %12, label %13, label %15

13:                                               ; preds = %2
  %14 = load i32, ptr %5, align 4, !tbaa !67
  store i32 %14, ptr %3, align 4
  store i32 1, ptr %8, align 4
  br label %61

15:                                               ; preds = %2
  %16 = load ptr, ptr %4, align 8, !tbaa !4
  %17 = getelementptr inbounds nuw %struct.MpegEncContext, ptr %16, i32 0, i32 134
  %18 = call i32 @get_bits1(ptr noundef %17)
  %19 = add i32 2, %18
  store i32 %19, ptr %6, align 4, !tbaa !67
  br label %20

20:                                               ; preds = %39, %15
  %21 = load ptr, ptr %4, align 8, !tbaa !4
  %22 = getelementptr inbounds nuw %struct.MpegEncContext, ptr %21, i32 0, i32 134
  %23 = call i32 @get_bits1(ptr noundef %22)
  %24 = icmp ne i32 %23, 0
  br i1 %24, label %25, label %40

25:                                               ; preds = %20
  %26 = load i32, ptr %6, align 4, !tbaa !67
  %27 = shl i32 %26, 1
  store i32 %27, ptr %6, align 4, !tbaa !67
  %28 = load ptr, ptr %4, align 8, !tbaa !4
  %29 = getelementptr inbounds nuw %struct.MpegEncContext, ptr %28, i32 0, i32 134
  %30 = call i32 @get_bits1(ptr noundef %29)
  %31 = load i32, ptr %6, align 4, !tbaa !67
  %32 = add i32 %31, %30
  store i32 %32, ptr %6, align 4, !tbaa !67
  %33 = load i32, ptr %6, align 4, !tbaa !67
  %34 = icmp sge i32 %33, 32768
  br i1 %34, label %35, label %39

35:                                               ; preds = %25
  %36 = load ptr, ptr %4, align 8, !tbaa !4
  %37 = getelementptr inbounds nuw %struct.MpegEncContext, ptr %36, i32 0, i32 10
  %38 = load ptr, ptr %37, align 8, !tbaa !9
  call void (ptr, ptr, ...) @avpriv_request_sample(ptr noundef %38, ptr noundef @.str.40)
  store i32 65535, ptr %3, align 4
  store i32 1, ptr %8, align 4
  br label %61

39:                                               ; preds = %25
  br label %20, !llvm.loop !116

40:                                               ; preds = %20
  %41 = load i32, ptr %6, align 4, !tbaa !67
  %42 = and i32 %41, 1
  store i32 %42, ptr %7, align 4, !tbaa !67
  %43 = load i32, ptr %6, align 4, !tbaa !67
  %44 = ashr i32 %43, 1
  store i32 %44, ptr %6, align 4, !tbaa !67
  %45 = load i32, ptr %7, align 4, !tbaa !67
  %46 = icmp ne i32 %45, 0
  br i1 %46, label %47, label %51

47:                                               ; preds = %40
  %48 = load i32, ptr %5, align 4, !tbaa !67
  %49 = load i32, ptr %6, align 4, !tbaa !67
  %50 = sub nsw i32 %48, %49
  br label %55

51:                                               ; preds = %40
  %52 = load i32, ptr %5, align 4, !tbaa !67
  %53 = load i32, ptr %6, align 4, !tbaa !67
  %54 = add nsw i32 %52, %53
  br label %55

55:                                               ; preds = %51, %47
  %56 = phi i32 [ %50, %47 ], [ %54, %51 ]
  store i32 %56, ptr %6, align 4, !tbaa !67
  br label %57

57:                                               ; preds = %55
  br label %58

58:                                               ; preds = %57
  br label %59

59:                                               ; preds = %58
  %60 = load i32, ptr %6, align 4, !tbaa !67
  store i32 %60, ptr %3, align 4
  store i32 1, ptr %8, align 4
  br label %61

61:                                               ; preds = %59, %35, %13
  call void @llvm.lifetime.end.p0(i64 4, ptr %7) #10
  call void @llvm.lifetime.end.p0(i64 4, ptr %6) #10
  %62 = load i32, ptr %3, align 4
  ret i32 %62
}