; Function Attrs: nounwind uwtable
define internal fastcc i32 @h263p_decode_umotion(ptr noundef captures(none) %0, i32 noundef %1) unnamed_addr #0 {
  %3 = getelementptr inbounds nuw i8, ptr %0, i64 4160
  %4 = getelementptr inbounds nuw i8, ptr %0, i64 4176
  %5 = load i32, ptr %4, align 8, !tbaa !73
  %6 = load ptr, ptr %3, align 8, !tbaa !74
  %7 = lshr i32 %5, 3
  %8 = zext nneg i32 %7 to i64
  %9 = getelementptr inbounds nuw i8, ptr %6, i64 %8
  %10 = load i8, ptr %9, align 1, !tbaa !72
  %11 = and i32 %5, 7
  %12 = zext i8 %10 to i32
  %13 = add i32 %5, 1
  store i32 %13, ptr %4, align 8, !tbaa !73
  %14 = lshr exact i32 128, %11
  %15 = and i32 %14, %12
  %.not = icmp eq i32 %15, 0
  br i1 %.not, label %16, label %61

16:                                               ; preds = %2
  %17 = lshr i32 %13, 3
  %18 = zext nneg i32 %17 to i64
  %19 = getelementptr inbounds nuw i8, ptr %6, i64 %18
  %20 = load i8, ptr %19, align 1, !tbaa !72
  %21 = and i32 %13, 7
  %22 = zext i8 %20 to i32
  %23 = shl nuw nsw i32 %22, %21
  %24 = lshr i32 %23, 7
  %25 = add i32 %5, 2
  store i32 %25, ptr %4, align 8, !tbaa !73
  %26 = and i32 %24, 1
  %27 = or disjoint i32 %26, 2
  br label %28

28:                                               ; preds = %39, %16
  %29 = phi i32 [ %25, %16 ], [ %49, %39 ]
  %.017 = phi i32 [ %27, %16 ], [ %51, %39 ]
  %30 = lshr i32 %29, 3
  %31 = zext nneg i32 %30 to i64
  %32 = getelementptr inbounds nuw i8, ptr %6, i64 %31
  %33 = load i8, ptr %32, align 1, !tbaa !72
  %34 = and i32 %29, 7
  %35 = zext i8 %33 to i32
  %36 = add i32 %29, 1
  store i32 %36, ptr %4, align 8, !tbaa !73
  %37 = lshr exact i32 128, %34
  %38 = and i32 %37, %35
  %.not19 = icmp eq i32 %38, 0
  br i1 %.not19, label %56, label %39

39:                                               ; preds = %28
  %40 = shl i32 %.017, 1
  %41 = lshr i32 %36, 3
  %42 = zext nneg i32 %41 to i64
  %43 = getelementptr inbounds nuw i8, ptr %6, i64 %42
  %44 = load i8, ptr %43, align 1, !tbaa !72
  %45 = and i32 %36, 7
  %46 = zext i8 %44 to i32
  %47 = shl nuw nsw i32 %46, %45
  %48 = lshr i32 %47, 7
  %49 = add i32 %29, 2
  store i32 %49, ptr %4, align 8, !tbaa !73
  %50 = and i32 %48, 1
  %51 = or disjoint i32 %50, %40
  %52 = icmp sgt i32 %51, 32767
  br i1 %52, label %53, label %28, !llvm.loop !101

53:                                               ; preds = %39
  %54 = getelementptr inbounds nuw i8, ptr %0, i64 472
  %55 = load ptr, ptr %54, align 8, !tbaa !4
  tail call void (ptr, ptr, ...) @avpriv_request_sample(ptr noundef %55, ptr noundef nonnull @.str.40) #12
  br label %61

56:                                               ; preds = %28
  %57 = and i32 %.017, 1
  %58 = ashr i32 %.017, 1
  %.not20 = icmp eq i32 %57, 0
  %59 = sub nsw i32 0, %58
  %.p = select i1 %.not20, i32 %58, i32 %59
  %60 = add i32 %.p, %1
  br label %61

61:                                               ; preds = %2, %56, %53
  %.0 = phi i32 [ 65535, %53 ], [ %60, %56 ], [ %1, %2 ]
  ret i32 %.0
}